target datalayout = "e-m:e-p270:32:32-p271:32:32-p272:64:64-i64:64-i128:128-f80:128-n8:16:32:64-S128"
target triple = "x86_64-pc-linux-gnu"

%struct.PutBitContext = type { i32, i32, ptr, ptr, ptr }

@.str.112 = private unnamed_addr constant [18 x i8] c"rbsp_stop_one_bit\00", align 1
@.str.113 = private unnamed_addr constant [24 x i8] c"rbsp_alignment_zero_bit\00", align 1

; Function Attrs: inlinehint nounwind uwtable
define internal i32 @put_bits_count(ptr noundef %0) #6 {
  %2 = alloca ptr, align 8
  store ptr %0, ptr %2, align 8, !tbaa !70
  %3 = load ptr, ptr %2, align 8, !tbaa !70
  %4 = getelementptr inbounds nuw %struct.PutBitContext, ptr %3, i32 0, i32 3
  %5 = load ptr, ptr %4, align 8, !tbaa !436
  %6 = load ptr, ptr %2, align 8, !tbaa !70
  %7 = getelementptr inbounds nuw %struct.PutBitContext, ptr %6, i32 0, i32 2
  %8 = load ptr, ptr %7, align 8, !tbaa !438
  %9 = ptrtoint ptr %5 to i64
  %10 = ptrtoint ptr %8 to i64
  %11 = sub i64 %9, %10
  %12 = mul nsw i64 %11, 8
  %13 = add nsw i64 %12, 32
  %14 = load ptr, ptr %2, align 8, !tbaa !70
  %15 = getelementptr inbounds nuw %struct.PutBitContext, ptr %14, i32 0, i32 1
  %16 = load i32, ptr %15, align 4, !tbaa !439
  %17 = sext i32 %16 to i64
  %18 = sub nsw i64 %13, %17
  %19 = trunc i64 %18 to i32
  ret i32 %19
}

; Function Attrs: nounwind uwtable
define internal i32 @cbs_h264_write_rbsp_trailing_bits(ptr noundef %0, ptr noundef %1) #0 {
  %3 = alloca i32, align 4
  %4 = alloca ptr, align 8
  %5 = alloca ptr, align 8
  %6 = alloca i32, align 4
  %7 = alloca i32, align 4
  %8 = alloca i32, align 4
  %9 = alloca i32, align 4
  %10 = alloca i32, align 4
  %11 = alloca i32, align 4
  store ptr %0, ptr %4, align 8, !tbaa !4
  store ptr %1, ptr %5, align 8, !tbaa !70
  call void @llvm.lifetime.start.p0(i64 4, ptr %6) #11
  br label %12

12:                                               ; preds = %2
  call void @llvm.lifetime.start.p0(i64 4, ptr %7) #11
  store i32 1, ptr %7, align 4, !tbaa !11
  br label %13

13:                                               ; preds = %12
  call void @llvm.lifetime.start.p0(i64 4, ptr %8) #11
  %14 = load i32, ptr %7, align 4, !tbaa !11
  store i32 %14, ptr %8, align 4, !tbaa !11
  br label %15

15:                                               ; preds = %13
  %16 = load ptr, ptr %4, align 8, !tbaa !4
  %17 = load ptr, ptr %5, align 8, !tbaa !70
  %18 = load i32, ptr %8, align 4, !tbaa !11
  %19 = call i32 @ff_cbs_write_unsigned(ptr noundef %16, ptr noundef %17, i32 noundef 1, ptr noundef @.str.112, ptr noundef null, i32 noundef %18, i32 noundef 1, i32 noundef 1)
  store i32 %19, ptr %6, align 4, !tbaa !11
  %20 = load i32, ptr %6, align 4, !tbaa !11
  %21 = icmp slt i32 %20, 0
  br i1 %21, label %22, label %24

22:                                               ; preds = %15
  %23 = load i32, ptr %6, align 4, !tbaa !11
  store i32 %23, ptr %3, align 4
  store i32 1, ptr %9, align 4
  br label %27

24:                                               ; preds = %15
  br label %25

25:                                               ; preds = %24
  br label %26

26:                                               ; preds = %25
  store i32 0, ptr %9, align 4
  br label %27

27:                                               ; preds = %26, %22
  call void @llvm.lifetime.end.p0(i64 4, ptr %8) #11
  %28 = load i32, ptr %9, align 4
  switch i32 %28, label %32 [
    i32 0, label %29
  ]

29:                                               ; preds = %27
  br label %30

30:                                               ; preds = %29
  br label %31

31:                                               ; preds = %30
  store i32 0, ptr %9, align 4
  br label %32

32:                                               ; preds = %31, %27
  call void @llvm.lifetime.end.p0(i64 4, ptr %7) #11
  %33 = load i32, ptr %9, align 4
  switch i32 %33, label %69 [
    i32 0, label %34
  ]

34:                                               ; preds = %32
  br label %35

35:                                               ; preds = %34
  br label %36

36:                                               ; preds = %35
  br label %37

37:                                               ; preds = %67, %36
  %38 = load ptr, ptr %5, align 8, !tbaa !70
  %39 = call i32 @put_bits_count(ptr noundef %38)
  %40 = srem i32 %39, 8
  %41 = icmp ne i32 %40, 0
  br i1 %41, label %42, label %68

42:                                               ; preds = %37
  br label %43

43:                                               ; preds = %42
  call void @llvm.lifetime.start.p0(i64 4, ptr %10) #11
  store i32 0, ptr %10, align 4, !tbaa !11
  br label %44

44:                                               ; preds = %43
  call void @llvm.lifetime.start.p0(i64 4, ptr %11) #11
  %45 = load i32, ptr %10, align 4, !tbaa !11
  store i32 %45, ptr %11, align 4, !tbaa !11
  br label %46

46:                                               ; preds = %44
  %47 = load ptr, ptr %4, align 8, !tbaa !4
  %48 = load ptr, ptr %5, align 8, !tbaa !70
  %49 = load i32, ptr %11, align 4, !tbaa !11
  %50 = call i32 @ff_cbs_write_unsigned(ptr noundef %47, ptr noundef %48, i32 noundef 1, ptr noundef @.str.113, ptr noundef null, i32 noundef %49, i32 noundef 0, i32 noundef 0)
  store i32 %50, ptr %6, align 4, !tbaa !11
  %51 = load i32, ptr %6, align 4, !tbaa !11
  %52 = icmp slt i32 %51, 0
  br i1 %52, label %53, label %55

53:                                               ; preds = %46
  %54 = load i32, ptr %6, align 4, !tbaa !11
  store i32 %54, ptr %3, align 4
  store i32 1, ptr %9, align 4
  br label %58

55:                                               ; preds = %46
  br label %56

56:                                               ; preds = %55
  br label %57

57:                                               ; preds = %56
  store i32 0, ptr %9, align 4
  br label %58

58:                                               ; preds = %57, %53
  call void @llvm.lifetime.end.p0(i64 4, ptr %11) #11
  %59 = load i32, ptr %9, align 4
  switch i32 %59, label %63 [
    i32 0, label %60
  ]

60:                                               ; preds = %58
  br label %61

61:                                               ; preds = %60
  br label %62

62:                                               ; preds = %61
  store i32 0, ptr %9, align 4
  br label %63

63:                                               ; preds = %62, %58
  call void @llvm.lifetime.end.p0(i64 4, ptr %10) #11
  %64 = load i32, ptr %9, align 4
  switch i32 %64, label %69 [
    i32 0, label %65
  ]

65:                                               ; preds = %63
  br label %66

66:                                               ; preds = %65
  br label %67

67:                                               ; preds = %66
  br label %37, !llvm.loop !435

68:                                               ; preds = %37
  store i32 0, ptr %3, align 4
  store i32 1, ptr %9, align 4
  br label %69

69:                                               ; preds = %68, %63, %32
  call void @llvm.lifetime.end.p0(i64 4, ptr %6) #11
  %70 = load i32, ptr %3, align 4
  ret i32 %70
}