; Function Attrs: nounwind uwtable
define internal fastcc range(i32 -2147483648, 1) i32 @cbs_h264_write_rbsp_trailing_bits(ptr noundef %0, ptr noundef %1) unnamed_addr #0 {
  %3 = tail call i32 @ff_cbs_write_unsigned(ptr noundef %0, ptr noundef %1, i32 noundef 1, ptr noundef nonnull @.str.112, ptr noundef null, i32 noundef 1, i32 noundef 1, i32 noundef 1) #11
  %4 = icmp sgt i32 %3, -1
  br i1 %4, label %.preheader, label %.loopexit

.preheader:                                       ; preds = %2
  %5 = getelementptr inbounds nuw i8, ptr %1, i64 4
  br label %6

6:                                                ; preds = %.preheader, %9
  %7 = load i32, ptr %5, align 4, !tbaa !200
  %reass.sub.i = sub i32 0, %7
  %8 = and i32 %reass.sub.i, 7
  %.not = icmp eq i32 %8, 0
  br i1 %.not, label %.loopexit, label %9

9:                                                ; preds = %6
  %10 = tail call i32 @ff_cbs_write_unsigned(ptr noundef %0, ptr noundef nonnull %1, i32 noundef 1, ptr noundef nonnull @.str.113, ptr noundef null, i32 noundef 0, i32 noundef 0, i32 noundef 0) #11
  %11 = icmp sgt i32 %10, -1
  br i1 %11, label %6, label %.loopexit, !llvm.loop !202

.loopexit:                                        ; preds = %6, %9, %2
  %.1 = phi i32 [ %3, %2 ], [ 0, %6 ], [ %10, %9 ]
  ret i32 %.1
}